ARM GAS  C:\Users\Admin\AppData\Local\Temp\ccOqECZT.s 			page 1


   1              		.syntax unified
   2              		.cpu cortex-m0
   3              		.fpu softvfp
   4              		.eabi_attribute 20, 1
   5              		.eabi_attribute 21, 1
   6              		.eabi_attribute 23, 3
   7              		.eabi_attribute 24, 1
   8              		.eabi_attribute 25, 1
   9              		.eabi_attribute 26, 1
  10              		.eabi_attribute 30, 6
  11              		.eabi_attribute 34, 0
  12              		.eabi_attribute 18, 4
  13              		.thumb
  14              		.syntax unified
  15              		.file	"common.c"
  16              		.text
  17              	.Ltext0:
  18              		.cfi_sections	.debug_frame
  19              		.section	.text._write,"ax",%progbits
  20              		.align	2
  21              		.global	_write
  22              		.code	16
  23              		.thumb_func
  24              		.type	_write, %function
  25              	_write:
  26              	.LFB36:
  27              		.file 1 "common.c"
   1:common.c      **** /*******************************************************************************
   2:common.c      **** * File Name: debug.c
   3:common.c      **** *
   4:common.c      **** * Version: 1.0
   5:common.c      **** *
   6:common.c      **** * Description:
   7:common.c      **** *  This file contains functions for printf functionality.
   8:common.c      **** *
   9:common.c      **** * Hardware Dependency:
  10:common.c      **** *  CY8CKIT-042 BLE
  11:common.c      **** *
  12:common.c      **** ********************************************************************************
  13:common.c      **** * Copyright 2014, Cypress Semiconductor Corporation.  All rights reserved.
  14:common.c      **** * You may use this file only in accordance with the license, terms, conditions,
  15:common.c      **** * disclaimers, and limitations in the end user license agreement accompanying
  16:common.c      **** * the software package with which this file was provided.
  17:common.c      **** *******************************************************************************/
  18:common.c      **** 
  19:common.c      **** #include <project.h>
  20:common.c      **** #include <stdio.h>
  21:common.c      **** 
  22:common.c      **** 
  23:common.c      **** #if defined(__ARMCC_VERSION)
  24:common.c      **** 
  25:common.c      **** /* For MDK/RVDS compiler revise fputc function for printf functionality */
  26:common.c      **** struct __FILE
  27:common.c      **** {
  28:common.c      ****     int handle;
  29:common.c      **** };
  30:common.c      **** 
ARM GAS  C:\Users\Admin\AppData\Local\Temp\ccOqECZT.s 			page 2


  31:common.c      **** enum
  32:common.c      **** {
  33:common.c      ****     STDIN_HANDLE,
  34:common.c      ****     STDOUT_HANDLE,
  35:common.c      ****     STDERR_HANDLE
  36:common.c      **** };
  37:common.c      **** 
  38:common.c      **** FILE __stdin = {STDIN_HANDLE};
  39:common.c      **** FILE __stdout = {STDOUT_HANDLE};
  40:common.c      **** FILE __stderr = {STDERR_HANDLE};
  41:common.c      **** 
  42:common.c      **** int fputc(int ch, FILE *file)
  43:common.c      **** {
  44:common.c      ****     int ret = EOF;
  45:common.c      **** 
  46:common.c      ****     switch( file->handle )
  47:common.c      ****     {
  48:common.c      ****         case STDOUT_HANDLE:
  49:common.c      ****             UART_DEB_UartPutChar(ch);
  50:common.c      ****             ret = ch ;
  51:common.c      ****             break ;
  52:common.c      **** 
  53:common.c      ****         case STDERR_HANDLE:
  54:common.c      ****             ret = ch ;
  55:common.c      ****             break ;
  56:common.c      **** 
  57:common.c      ****         default:
  58:common.c      ****             file = file;
  59:common.c      ****             break ;
  60:common.c      ****     }
  61:common.c      ****     return ret ;
  62:common.c      **** }
  63:common.c      **** 
  64:common.c      **** #elif defined (__ICCARM__)      /* IAR */
  65:common.c      **** 
  66:common.c      **** /* For IAR compiler revise __write() function for printf functionality */
  67:common.c      **** size_t __write(int handle, const unsigned char * buffer, size_t size)
  68:common.c      **** {
  69:common.c      ****     size_t nChars = 0;
  70:common.c      **** 
  71:common.c      ****     if (buffer == 0)
  72:common.c      ****     {
  73:common.c      ****         /*
  74:common.c      ****          * This means that we should flush internal buffers.  Since we
  75:common.c      ****          * don't we just return.  (Remember, "handle" == -1 means that all
  76:common.c      ****          * handles should be flushed.)
  77:common.c      ****          */
  78:common.c      ****         return (0);
  79:common.c      ****     }
  80:common.c      **** 
  81:common.c      ****     for (/* Empty */; size != 0; --size)
  82:common.c      ****     {
  83:common.c      ****         UART_DEB_UartPutChar(*buffer++);
  84:common.c      ****         ++nChars;
  85:common.c      ****     }
  86:common.c      **** 
  87:common.c      ****     return (nChars);
ARM GAS  C:\Users\Admin\AppData\Local\Temp\ccOqECZT.s 			page 3


  88:common.c      **** }
  89:common.c      **** 
  90:common.c      **** #else  /* (__GNUC__)  GCC */
  91:common.c      **** 
  92:common.c      **** /* For GCC compiler revise _write() function for printf functionality */
  93:common.c      **** int _write(int file, char *ptr, int len)
  94:common.c      **** {
  28              		.loc 1 94 0
  29              		.cfi_startproc
  30              		@ args = 0, pretend = 0, frame = 24
  31              		@ frame_needed = 1, uses_anonymous_args = 0
  32 0000 80B5     		push	{r7, lr}
  33              		.cfi_def_cfa_offset 8
  34              		.cfi_offset 7, -8
  35              		.cfi_offset 14, -4
  36 0002 86B0     		sub	sp, sp, #24
  37              		.cfi_def_cfa_offset 32
  38 0004 00AF     		add	r7, sp, #0
  39              		.cfi_def_cfa_register 7
  40 0006 F860     		str	r0, [r7, #12]
  41 0008 B960     		str	r1, [r7, #8]
  42 000a 7A60     		str	r2, [r7, #4]
  95:common.c      ****     int i;
  96:common.c      ****     file = file;
  97:common.c      ****     for (i = 0; i < len; i++)
  43              		.loc 1 97 0
  44 000c 0023     		movs	r3, #0
  45 000e 7B61     		str	r3, [r7, #20]
  46 0010 09E0     		b	.L2
  47              	.L3:
  98:common.c      ****     {
  99:common.c      ****         UART_UartPutChar(*ptr++);
  48              		.loc 1 99 0 discriminator 3
  49 0012 BB68     		ldr	r3, [r7, #8]
  50 0014 5A1C     		adds	r2, r3, #1
  51 0016 BA60     		str	r2, [r7, #8]
  52 0018 1B78     		ldrb	r3, [r3]
  53 001a 1800     		movs	r0, r3
  54 001c FFF7FEFF 		bl	UART_SpiUartWriteTxData
  97:common.c      ****     {
  55              		.loc 1 97 0 discriminator 3
  56 0020 7B69     		ldr	r3, [r7, #20]
  57 0022 0133     		adds	r3, r3, #1
  58 0024 7B61     		str	r3, [r7, #20]
  59              	.L2:
  97:common.c      ****     {
  60              		.loc 1 97 0 is_stmt 0 discriminator 1
  61 0026 7A69     		ldr	r2, [r7, #20]
  62 0028 7B68     		ldr	r3, [r7, #4]
  63 002a 9A42     		cmp	r2, r3
  64 002c F1DB     		blt	.L3
 100:common.c      ****     }
 101:common.c      ****     return len;
  65              		.loc 1 101 0 is_stmt 1
  66 002e 7B68     		ldr	r3, [r7, #4]
 102:common.c      **** }
  67              		.loc 1 102 0
ARM GAS  C:\Users\Admin\AppData\Local\Temp\ccOqECZT.s 			page 4


  68 0030 1800     		movs	r0, r3
  69 0032 BD46     		mov	sp, r7
  70 0034 06B0     		add	sp, sp, #24
  71              		@ sp needed
  72 0036 80BD     		pop	{r7, pc}
  73              		.cfi_endproc
  74              	.LFE36:
  75              		.size	_write, .-_write
  76              		.text
  77              	.Letext0:
  78              		.file 2 "Generated_Source\\PSoC4/cytypes.h"